; Function Attrs: mustprogress uwtable
define noundef zeroext i1 @_ZN32pxrInternal_v0_24__pxrReserved__13SdfFileFormat21FormatSupportsEditingERKNSt7__cxx1112basic_stringIcSt11char_traitsIcESaIcEEES8_(ptr noundef nonnull align 8 dereferenceable(32) %0, ptr noundef nonnull align 8 dereferenceable(32) %1) local_unnamed_addr #0 align 2 personality ptr @__gxx_personality_v0 {
  %3 = load atomic i64, ptr @_ZN32pxrInternal_v0_24__pxrReserved__L19_FileFormatRegistryE seq_cst, align 8
  %4 = inttoptr i64 %3 to ptr
  %.not.i.i = icmp eq i64 %3, 0
  br i1 %.not.i.i, label %5, label %_ZNK32pxrInternal_v0_24__pxrReserved__12TfStaticDataINS_22Sdf_FileFormatRegistryENS_27Tf_StaticDataDefaultFactoryIS1_EEEptEv.exit

5:                                                ; preds = %2
  %6 = tail call noalias noundef nonnull dereferenceable(216) ptr @_Znwm(i64 noundef 216) #23
  invoke void @_ZN32pxrInternal_v0_24__pxrReserved__22Sdf_FileFormatRegistryC1Ev(ptr noundef nonnull align 8 dereferenceable(216) %6)
          to label %_ZN32pxrInternal_v0_24__pxrReserved__27Tf_StaticDataDefaultFactoryINS_22Sdf_FileFormatRegistryEE3NewEv.exit.i.i.i unwind label %7

7:                                                ; preds = %5
  %8 = landingpad { ptr, i32 }
          cleanup
  tail call void @_ZdlPvm(ptr noundef nonnull %6, i64 noundef 216) #22
  resume { ptr, i32 } %8

_ZN32pxrInternal_v0_24__pxrReserved__27Tf_StaticDataDefaultFactoryINS_22Sdf_FileFormatRegistryEE3NewEv.exit.i.i.i: ; preds = %5
  %9 = ptrtoint ptr %6 to i64
  %10 = cmpxchg ptr @_ZN32pxrInternal_v0_24__pxrReserved__L19_FileFormatRegistryE, i64 0, i64 %9 seq_cst seq_cst, align 8
  %11 = extractvalue { i64, i1 } %10, 1
  br i1 %11, label %_ZNK32pxrInternal_v0_24__pxrReserved__12TfStaticDataINS_22Sdf_FileFormatRegistryENS_27Tf_StaticDataDefaultFactoryIS1_EEEptEv.exit, label %12

12:                                               ; preds = %_ZN32pxrInternal_v0_24__pxrReserved__27Tf_StaticDataDefaultFactoryINS_22Sdf_FileFormatRegistryEE3NewEv.exit.i.i.i
  tail call void @_ZN32pxrInternal_v0_24__pxrReserved__22Sdf_FileFormatRegistryD2Ev(ptr noundef nonnull align 8 dereferenceable(216) %6) #24
  tail call void @_ZdlPvm(ptr noundef nonnull %6, i64 noundef 216) #22
  %13 = load atomic i64, ptr @_ZN32pxrInternal_v0_24__pxrReserved__L19_FileFormatRegistryE seq_cst, align 8
  %14 = inttoptr i64 %13 to ptr
  br label %_ZNK32pxrInternal_v0_24__pxrReserved__12TfStaticDataINS_22Sdf_FileFormatRegistryENS_27Tf_StaticDataDefaultFactoryIS1_EEEptEv.exit

_ZNK32pxrInternal_v0_24__pxrReserved__12TfStaticDataINS_22Sdf_FileFormatRegistryENS_27Tf_StaticDataDefaultFactoryIS1_EEEptEv.exit: ; preds = %2, %_ZN32pxrInternal_v0_24__pxrReserved__27Tf_StaticDataDefaultFactoryINS_22Sdf_FileFormatRegistryEE3NewEv.exit.i.i.i, %12
  %15 = phi ptr [ %4, %2 ], [ %14, %12 ], [ %6, %_ZN32pxrInternal_v0_24__pxrReserved__27Tf_StaticDataDefaultFactoryINS_22Sdf_FileFormatRegistryEE3NewEv.exit.i.i.i ]
  %16 = tail call noundef zeroext i1 @_ZN32pxrInternal_v0_24__pxrReserved__22Sdf_FileFormatRegistry21FormatSupportsEditingERKNSt7__cxx1112basic_stringIcSt11char_traitsIcESaIcEEES8_(ptr noundef nonnull align 8 dereferenceable(216) %15, ptr noundef nonnull align 8 dereferenceable(32) %0, ptr noundef nonnull align 8 dereferenceable(32) %1)
  ret i1 %16
}